; Function Attrs: mustprogress nofree norecurse nounwind sspstrong willreturn memory(argmem: readwrite) uwtable
define noundef zeroext i1 @_ZN3tbb6detail2r15arena8try_joinEv(ptr noundef nonnull align 128 captures(none) dereferenceable(768) %0) local_unnamed_addr #7 align 2 {
  %2 = getelementptr inbounds nuw i8, ptr %0, i64 132
  %3 = load atomic i32, ptr %2 acquire, align 4
  %4 = lshr i32 %3, 12
  %5 = getelementptr inbounds nuw i8, ptr %0, i64 128
  %6 = load atomic i32, ptr %5 monotonic, align 128
  %7 = icmp ult i32 %4, %6
  br i1 %7, label %8, label %10

8:                                                ; preds = %1
  %9 = atomicrmw add ptr %2, i32 4096 seq_cst, align 4
  br label %10

10:                                               ; preds = %1, %8
  ret i1 %7
}